target datalayout = "e-m:e-p270:32:32-p271:32:32-p272:64:64-i64:64-i128:128-f80:128-n8:16:32:64-S128"
target triple = "x86_64-pc-linux-gnu"

%class.QString = type { %struct.QArrayDataPointer }
%struct.QArrayDataPointer = type { ptr, ptr, i64 }
%class.PreferencesDialog = type { %class.GeometryStateDialog, ptr, %class.QHash, %class.PrefsModel, %class.AdvancedPrefsModel, %class.AdvancedPrefDelegate, %class.ModulePrefsModel, i32, ptr, %class.QString }
%class.GeometryStateDialog = type { %class.QDialog, %class.QString }
%class.QDialog = type { %class.QWidget }
%class.QWidget = type { %class.QObject, %class.QPaintDevice.base, ptr }
%class.QObject = type { ptr, %class.QScopedPointer }
%class.QScopedPointer = type { ptr }
%class.QPaintDevice.base = type <{ ptr, i16 }>
%class.QHash = type { ptr }
%class.PrefsModel = type { %class.QAbstractItemModel, ptr }
%class.QAbstractItemModel = type { %class.QObject }
%class.AdvancedPrefsModel = type <{ %class.QSortFilterProxyModel, %class.QString, i8, i8, %class.QChar, [4 x i8] }>
%class.QSortFilterProxyModel = type { %class.QAbstractProxyModel }
%class.QAbstractProxyModel = type { %class.QAbstractItemModel }
%class.QChar = type { i16 }
%class.AdvancedPrefDelegate = type { %class.QStyledItemDelegate }
%class.QStyledItemDelegate = type { %class.QAbstractItemDelegate }
%class.QAbstractItemDelegate = type { %class.QObject }
%class.ModulePrefsModel = type { %class.QSortFilterProxyModel, %class.QString }
%class.Ui_PreferencesDialog = type { ptr, ptr, ptr, ptr, ptr, ptr, ptr, ptr, ptr, ptr, ptr, ptr, ptr, ptr, ptr, ptr, ptr, ptr, ptr, ptr, ptr }

; Function Attrs: mustprogress uwtable
define void @_ZN17PreferencesDialog36on_showChangedValuesCheckBox_toggledEb(ptr noundef nonnull align 8 dereferenceable(248) %0, i1 noundef zeroext %1) #0 align 2 {
  %3 = alloca ptr, align 8
  %4 = alloca i8, align 1
  store ptr %0, ptr %3, align 8
  %5 = zext i1 %1 to i8
  store i8 %5, ptr %4, align 1
  %6 = load ptr, ptr %3, align 8
  %7 = getelementptr inbounds %class.PreferencesDialog, ptr %6, i32 0, i32 4
  %8 = load i8, ptr %4, align 1
  %9 = trunc i8 %8 to i1
  call void @_ZN18AdvancedPrefsModel20setShowChangedValuesEb(ptr noundef nonnull align 8 dereferenceable(44) %7, i1 noundef zeroext %9)
  %10 = getelementptr inbounds %class.PreferencesDialog, ptr %6, i32 0, i32 1
  %11 = load ptr, ptr %10, align 8
  %12 = getelementptr inbounds %class.Ui_PreferencesDialog, ptr %11, i32 0, i32 19
  %13 = load ptr, ptr %12, align 8
  call void @_ZN9QTreeView9expandAllEv(ptr noundef nonnull align 8 dereferenceable(40) %13)
  ret void
}