; Function Attrs: mustprogress uwtable
define void @_ZN17PreferencesDialog36on_showChangedValuesCheckBox_toggledEb(ptr noundef nonnull align 8 dereferenceable(248) %0, i1 noundef zeroext %1) local_unnamed_addr #0 align 2 {
  %3 = getelementptr inbounds i8, ptr %0, i64 104
  tail call void @_ZN18AdvancedPrefsModel20setShowChangedValuesEb(ptr noundef nonnull align 8 dereferenceable(44) %3, i1 noundef zeroext %1)
  %4 = getelementptr inbounds i8, ptr %0, i64 64
  %5 = load ptr, ptr %4, align 8
  %6 = getelementptr inbounds i8, ptr %5, i64 152
  %7 = load ptr, ptr %6, align 8
  tail call void @_ZN9QTreeView9expandAllEv(ptr noundef nonnull align 8 dereferenceable(40) %7)
  ret void
}